; Function Attrs: null_pointer_is_valid sspstrong uwtable
define internal void @dtap_gmm_detach_req(ptr noundef %0, ptr noundef %1, ptr noundef initializes((348, 352)) %2, i32 noundef %3, i32 noundef %4) #1 {
  %6 = getelementptr inbounds nuw i8, ptr %2, i64 384
  %7 = load i32, ptr %6, align 8
  switch i32 %7, label %10 [
    i32 0, label %8
    i32 1, label %9
  ]

8:                                                ; preds = %5
  tail call fastcc void @dtap_gmm_detach_req_MO(ptr noundef %0, ptr noundef %1, ptr noundef %2, i32 noundef %3, i32 noundef %4)
  br label %14

9:                                                ; preds = %5
  tail call fastcc void @dtap_gmm_detach_req_MT(ptr noundef %0, ptr noundef %1, ptr noundef %2, i32 noundef %3, i32 noundef %4)
  br label %14

10:                                               ; preds = %5
  %11 = icmp ugt i32 %4, 5
  br i1 %11, label %12, label %13

12:                                               ; preds = %10
  tail call fastcc void @dtap_gmm_detach_req_MO(ptr noundef %0, ptr noundef %1, ptr noundef %2, i32 noundef %3, i32 noundef %4)
  br label %14

13:                                               ; preds = %10
  tail call fastcc void @dtap_gmm_detach_req_MT(ptr noundef %0, ptr noundef %1, ptr noundef %2, i32 noundef %3, i32 noundef %4)
  br label %14

14:                                               ; preds = %13, %12, %9, %8
  ret void
}